; Function Attrs: mustprogress uwtable
define dso_local void @_ZN3tev10ThreadPool17waitUntilFinishedEv(ptr noundef nonnull align 8 dereferenceable(256) %0) local_unnamed_addr #1 align 2 {
  %2 = alloca %"class.std::__1::unique_lock", align 8
  %3 = getelementptr inbounds i8, ptr %0, i64 168
  store ptr %3, ptr %2, align 8
  %4 = getelementptr inbounds i8, ptr %2, i64 8
  store i8 1, ptr %4, align 8
  tail call void @_ZNSt3__15mutex4lockEv(ptr noundef nonnull align 8 dereferenceable(40) %3)
  %5 = getelementptr inbounds i8, ptr %0, i64 160
  %6 = load atomic i64, ptr %5 seq_cst, align 8
  %7 = icmp eq i64 %6, 0
  br i1 %7, label %10, label %8

8:                                                ; preds = %1
  %9 = getelementptr inbounds i8, ptr %0, i64 208
  call void @_ZNSt3__118condition_variable4waitERNS_11unique_lockINS_5mutexEEE(ptr noundef nonnull align 8 dereferenceable(48) %9, ptr noundef nonnull align 8 dereferenceable(9) %2) #13
  br label %10

10:                                               ; preds = %1, %8
  %11 = load i8, ptr %4, align 8
  %12 = and i8 %11, 1
  %.not.i = icmp eq i8 %12, 0
  br i1 %.not.i, label %_ZNSt3__111unique_lockINS_5mutexEED2B8ne190000Ev.exit, label %13

13:                                               ; preds = %10
  %14 = load ptr, ptr %2, align 8
  call void @_ZNSt3__15mutex6unlockEv(ptr noundef nonnull align 8 dereferenceable(40) %14) #13
  br label %_ZNSt3__111unique_lockINS_5mutexEED2B8ne190000Ev.exit

_ZNSt3__111unique_lockINS_5mutexEED2B8ne190000Ev.exit: ; preds = %10, %13
  ret void
}